target datalayout = "e-m:e-p270:32:32-p271:32:32-p272:64:64-i64:64-i128:128-f80:128-n8:16:32:64-S128"
target triple = "x86_64-pc-linux-gnu"

; Function Attrs: mustprogress nounwind uwtable
define noundef i32 @_ZN3vcg6mean4wEihihihih(i32 noundef %0, i8 noundef zeroext %1, i32 noundef %2, i8 noundef zeroext %3, i32 noundef %4, i8 noundef zeroext %5, i32 noundef %6, i8 noundef zeroext %7) #4 {
  %9 = alloca i32, align 4
  %10 = alloca i8, align 1
  %11 = alloca i32, align 4
  %12 = alloca i8, align 1
  %13 = alloca i32, align 4
  %14 = alloca i8, align 1
  %15 = alloca i32, align 4
  %16 = alloca i8, align 1
  %17 = alloca i32, align 4
  store i32 %0, ptr %9, align 4
  store i8 %1, ptr %10, align 1
  store i32 %2, ptr %11, align 4
  store i8 %3, ptr %12, align 1
  store i32 %4, ptr %13, align 4
  store i8 %5, ptr %14, align 1
  store i32 %6, ptr %15, align 4
  store i8 %7, ptr %16, align 1
  %18 = load i32, ptr %9, align 4
  %19 = load i8, ptr %10, align 1
  %20 = zext i8 %19 to i32
  %21 = mul nsw i32 %18, %20
  %22 = load i32, ptr %11, align 4
  %23 = load i8, ptr %12, align 1
  %24 = zext i8 %23 to i32
  %25 = mul nsw i32 %22, %24
  %26 = add nsw i32 %21, %25
  %27 = load i32, ptr %13, align 4
  %28 = load i8, ptr %14, align 1
  %29 = zext i8 %28 to i32
  %30 = mul nsw i32 %27, %29
  %31 = add nsw i32 %26, %30
  %32 = load i32, ptr %15, align 4
  %33 = load i8, ptr %16, align 1
  %34 = zext i8 %33 to i32
  %35 = mul nsw i32 %32, %34
  %36 = add nsw i32 %31, %35
  %37 = load i8, ptr %10, align 1
  %38 = zext i8 %37 to i32
  %39 = load i8, ptr %12, align 1
  %40 = zext i8 %39 to i32
  %41 = add nsw i32 %38, %40
  %42 = load i8, ptr %14, align 1
  %43 = zext i8 %42 to i32
  %44 = add nsw i32 %41, %43
  %45 = load i8, ptr %16, align 1
  %46 = zext i8 %45 to i32
  %47 = add nsw i32 %44, %46
  %48 = sdiv i32 %36, %47
  store i32 %48, ptr %17, align 4
  %49 = load i32, ptr %17, align 4
  ret i32 %49
}